target datalayout = "e-m:e-p270:32:32-p271:32:32-p272:64:64-i64:64-i128:128-f80:128-n8:16:32:64-S128"
target triple = "x86_64-pc-linux-gnu"

%"class.OpenColorIO_v2_5dev::(anonymous namespace)::Lut1dUtils::IMLutStruct" = type { i32, i32, i32, i32, ptr }

; Function Attrs: mustprogress nounwind uwtable
define internal void @_ZN19OpenColorIO_v2_5dev12_GLOBAL__N_110Lut1dUtils11IMLutStructD2Ev(ptr noundef nonnull align 8 dereferenceable(24) %0) unnamed_addr #7 align 2 {
  %2 = alloca ptr, align 8
  %3 = alloca i32, align 4
  %4 = alloca i32, align 4
  store ptr %0, ptr %2, align 8, !tbaa !28
  %5 = load ptr, ptr %2, align 8
  %6 = getelementptr inbounds nuw %"class.OpenColorIO_v2_5dev::(anonymous namespace)::Lut1dUtils::IMLutStruct", ptr %5, i32 0, i32 4
  %7 = load ptr, ptr %6, align 8, !tbaa !45
  %8 = icmp ne ptr %7, null
  br i1 %8, label %9, label %68

9:                                                ; preds = %1
  call void @llvm.lifetime.start.p0(i64 4, ptr %3) #3
  store i32 0, ptr %3, align 4, !tbaa !30
  br label %10

10:                                               ; preds = %61, %9
  %11 = load i32, ptr %3, align 4, !tbaa !30
  %12 = getelementptr inbounds nuw %"class.OpenColorIO_v2_5dev::(anonymous namespace)::Lut1dUtils::IMLutStruct", ptr %5, i32 0, i32 0
  %13 = load i32, ptr %12, align 8, !tbaa !44
  %14 = icmp slt i32 %11, %13
  br i1 %14, label %16, label %15

15:                                               ; preds = %10
  call void @llvm.lifetime.end.p0(i64 4, ptr %3) #3
  br label %64

16:                                               ; preds = %10
  %17 = getelementptr inbounds nuw %"class.OpenColorIO_v2_5dev::(anonymous namespace)::Lut1dUtils::IMLutStruct", ptr %5, i32 0, i32 4
  %18 = load ptr, ptr %17, align 8, !tbaa !45
  %19 = load i32, ptr %3, align 4, !tbaa !30
  %20 = sext i32 %19 to i64
  %21 = getelementptr inbounds ptr, ptr %18, i64 %20
  %22 = load ptr, ptr %21, align 8, !tbaa !46
  %23 = icmp ne ptr %22, null
  br i1 %23, label %24, label %60

24:                                               ; preds = %16
  call void @llvm.lifetime.start.p0(i64 4, ptr %4) #3
  store i32 0, ptr %4, align 4, !tbaa !30
  br label %25

25:                                               ; preds = %45, %24
  %26 = load i32, ptr %4, align 4, !tbaa !30
  %27 = load i32, ptr %3, align 4, !tbaa !30
  %28 = icmp slt i32 %26, %27
  br i1 %28, label %29, label %48

29:                                               ; preds = %25
  %30 = getelementptr inbounds nuw %"class.OpenColorIO_v2_5dev::(anonymous namespace)::Lut1dUtils::IMLutStruct", ptr %5, i32 0, i32 4
  %31 = load ptr, ptr %30, align 8, !tbaa !45
  %32 = load i32, ptr %4, align 4, !tbaa !30
  %33 = sext i32 %32 to i64
  %34 = getelementptr inbounds ptr, ptr %31, i64 %33
  %35 = load ptr, ptr %34, align 8, !tbaa !46
  %36 = getelementptr inbounds nuw %"class.OpenColorIO_v2_5dev::(anonymous namespace)::Lut1dUtils::IMLutStruct", ptr %5, i32 0, i32 4
  %37 = load ptr, ptr %36, align 8, !tbaa !45
  %38 = load i32, ptr %3, align 4, !tbaa !30
  %39 = sext i32 %38 to i64
  %40 = getelementptr inbounds ptr, ptr %37, i64 %39
  %41 = load ptr, ptr %40, align 8, !tbaa !46
  %42 = icmp eq ptr %35, %41
  br i1 %42, label %43, label %44

43:                                               ; preds = %29
  br label %48

44:                                               ; preds = %29
  br label %45

45:                                               ; preds = %44
  %46 = load i32, ptr %4, align 4, !tbaa !30
  %47 = add nsw i32 %46, 1
  store i32 %47, ptr %4, align 4, !tbaa !30
  br label %25, !llvm.loop !168

48:                                               ; preds = %43, %25
  %49 = load i32, ptr %4, align 4, !tbaa !30
  %50 = load i32, ptr %3, align 4, !tbaa !30
  %51 = icmp eq i32 %49, %50
  br i1 %51, label %52, label %59

52:                                               ; preds = %48
  %53 = getelementptr inbounds nuw %"class.OpenColorIO_v2_5dev::(anonymous namespace)::Lut1dUtils::IMLutStruct", ptr %5, i32 0, i32 4
  %54 = load ptr, ptr %53, align 8, !tbaa !45
  %55 = load i32, ptr %3, align 4, !tbaa !30
  %56 = sext i32 %55 to i64
  %57 = getelementptr inbounds ptr, ptr %54, i64 %56
  %58 = load ptr, ptr %57, align 8, !tbaa !46
  call void @free(ptr noundef %58) #3
  br label %59

59:                                               ; preds = %52, %48
  call void @llvm.lifetime.end.p0(i64 4, ptr %4) #3
  br label %60

60:                                               ; preds = %59, %16
  br label %61

61:                                               ; preds = %60
  %62 = load i32, ptr %3, align 4, !tbaa !30
  %63 = add nsw i32 %62, 1
  store i32 %63, ptr %3, align 4, !tbaa !30
  br label %10, !llvm.loop !169

64:                                               ; preds = %15
  %65 = getelementptr inbounds nuw %"class.OpenColorIO_v2_5dev::(anonymous namespace)::Lut1dUtils::IMLutStruct", ptr %5, i32 0, i32 4
  %66 = load ptr, ptr %65, align 8, !tbaa !45
  call void @free(ptr noundef %66) #3
  %67 = getelementptr inbounds nuw %"class.OpenColorIO_v2_5dev::(anonymous namespace)::Lut1dUtils::IMLutStruct", ptr %5, i32 0, i32 4
  store ptr null, ptr %67, align 8, !tbaa !45
  br label %68

68:                                               ; preds = %64, %1
  ret void
}

; Function Attrs: mustprogress nounwind uwtable
define internal noundef i32 @_ZN19OpenColorIO_v2_5dev12_GLOBAL__N_110Lut1dUtils24IMLutTableSizeToBitDepthEib(i32 noundef %0, i1 noundef zeroext %1) #7 align 2 {
  %3 = alloca i32, align 4
  %4 = alloca i32, align 4
  %5 = alloca i8, align 1
  store i32 %0, ptr %4, align 4, !tbaa !30
  %6 = zext i1 %1 to i8
  store i8 %6, ptr %5, align 1, !tbaa !65
  %7 = load i32, ptr %4, align 4, !tbaa !30
  switch i32 %7, label %15 [
    i32 256, label %8
    i32 1024, label %9
    i32 4096, label %10
    i32 65536, label %11
  ]

8:                                                ; preds = %2
  store i32 8, ptr %3, align 4
  br label %16

9:                                                ; preds = %2
  store i32 10, ptr %3, align 4
  br label %16

10:                                               ; preds = %2
  store i32 12, ptr %3, align 4
  br label %16

11:                                               ; preds = %2
  %12 = load i8, ptr %5, align 1, !tbaa !65, !range !67, !noundef !68
  %13 = trunc i8 %12 to i1
  %14 = select i1 %13, i32 -16, i32 16
  store i32 %14, ptr %3, align 4
  br label %16

15:                                               ; preds = %2
  store i32 0, ptr %3, align 4
  br label %16

16:                                               ; preds = %15, %11, %10, %9, %8
  %17 = load i32, ptr %3, align 4
  ret i32 %17
}

; Function Attrs: mustprogress nounwind uwtable
define internal void @_ZN19OpenColorIO_v2_5dev12_GLOBAL__N_110Lut1dUtils11IMLutStructC2Ev(ptr noundef nonnull align 8 dereferenceable(24) %0) unnamed_addr #7 align 2 {
  %2 = alloca ptr, align 8
  store ptr %0, ptr %2, align 8, !tbaa !28
  %3 = load ptr, ptr %2, align 8
  %4 = getelementptr inbounds nuw %"class.OpenColorIO_v2_5dev::(anonymous namespace)::Lut1dUtils::IMLutStruct", ptr %3, i32 0, i32 0
  store i32 0, ptr %4, align 8, !tbaa !44
  %5 = getelementptr inbounds nuw %"class.OpenColorIO_v2_5dev::(anonymous namespace)::Lut1dUtils::IMLutStruct", ptr %3, i32 0, i32 4
  store ptr null, ptr %5, align 8, !tbaa !45
  ret void
}

; Function Attrs: mustprogress uwtable
define internal noundef zeroext i1 @_ZN19OpenColorIO_v2_5dev12_GLOBAL__N_110Lut1dUtils10IMLutAllocEPPNS1_11IMLutStructEii(ptr noundef %0, i32 noundef %1, i32 noundef %2) #4 align 2 personality ptr @__gxx_personality_v0 {
  %4 = alloca i1, align 1
  %5 = alloca ptr, align 8
  %6 = alloca i32, align 4
  %7 = alloca i32, align 4
  %8 = alloca i32, align 4
  %9 = alloca ptr, align 8
  %10 = alloca i32, align 4
  %11 = alloca ptr, align 8
  %12 = alloca i32, align 4
  %13 = alloca i8, align 1
  store ptr %0, ptr %5, align 8, !tbaa !111
  store i32 %1, ptr %6, align 4, !tbaa !30
  store i32 %2, ptr %7, align 4, !tbaa !30
  call void @llvm.lifetime.start.p0(i64 4, ptr %8) #3
  call void @llvm.lifetime.start.p0(i64 8, ptr %9) #3
  %14 = load i32, ptr %6, align 4, !tbaa !30
  %15 = icmp slt i32 %14, 0
  br i1 %15, label %19, label %16

16:                                               ; preds = %3
  %17 = load i32, ptr %7, align 4, !tbaa !30
  %18 = icmp slt i32 %17, 0
  br i1 %18, label %19, label %20

19:                                               ; preds = %16, %3
  store i1 false, ptr %4, align 1
  store i32 1, ptr %10, align 4
  br label %111

20:                                               ; preds = %16
  %21 = call noalias noundef nonnull ptr @_Znwm(i64 noundef 24) #25
  invoke void @_ZN19OpenColorIO_v2_5dev12_GLOBAL__N_110Lut1dUtils11IMLutStructC2Ev(ptr noundef nonnull align 8 dereferenceable(24) %21)
          to label %22 unwind label %26

22:                                               ; preds = %20
  store ptr %21, ptr %9, align 8, !tbaa !28
  %23 = load ptr, ptr %9, align 8, !tbaa !28
  %24 = icmp eq ptr %23, null
  br i1 %24, label %25, label %30

25:                                               ; preds = %22
  store i1 false, ptr %4, align 1
  store i32 1, ptr %10, align 4
  br label %111

26:                                               ; preds = %20
  %27 = landingpad { ptr, i32 }
          cleanup
  %28 = extractvalue { ptr, i32 } %27, 0
  store ptr %28, ptr %11, align 8
  %29 = extractvalue { ptr, i32 } %27, 1
  store i32 %29, ptr %12, align 4
  call void @_ZdlPvm(ptr noundef %21, i64 noundef 24) #26
  call void @llvm.lifetime.end.p0(i64 8, ptr %9) #3
  call void @llvm.lifetime.end.p0(i64 4, ptr %8) #3
  br label %113

30:                                               ; preds = %22
  %31 = load ptr, ptr %9, align 8, !tbaa !28
  %32 = getelementptr inbounds nuw %"class.OpenColorIO_v2_5dev::(anonymous namespace)::Lut1dUtils::IMLutStruct", ptr %31, i32 0, i32 4
  store ptr null, ptr %32, align 8, !tbaa !45
  %33 = load i32, ptr %6, align 4, !tbaa !30
  %34 = load ptr, ptr %9, align 8, !tbaa !28
  %35 = getelementptr inbounds nuw %"class.OpenColorIO_v2_5dev::(anonymous namespace)::Lut1dUtils::IMLutStruct", ptr %34, i32 0, i32 0
  store i32 %33, ptr %35, align 8, !tbaa !44
  %36 = load i32, ptr %7, align 4, !tbaa !30
  %37 = load ptr, ptr %9, align 8, !tbaa !28
  %38 = getelementptr inbounds nuw %"class.OpenColorIO_v2_5dev::(anonymous namespace)::Lut1dUtils::IMLutStruct", ptr %37, i32 0, i32 1
  store i32 %36, ptr %38, align 4, !tbaa !39
  call void @llvm.lifetime.start.p0(i64 1, ptr %13) #3
  store i8 1, ptr %13, align 1, !tbaa !65
  %39 = load i32, ptr %7, align 4, !tbaa !30
  %40 = call noundef i32 @_ZN19OpenColorIO_v2_5dev12_GLOBAL__N_110Lut1dUtils24IMLutTableSizeToBitDepthEib(i32 noundef %39, i1 noundef zeroext true)
  %41 = load ptr, ptr %9, align 8, !tbaa !28
  %42 = getelementptr inbounds nuw %"class.OpenColorIO_v2_5dev::(anonymous namespace)::Lut1dUtils::IMLutStruct", ptr %41, i32 0, i32 2
  store i32 %40, ptr %42, align 8, !tbaa !32
  %43 = load i32, ptr %7, align 4, !tbaa !30
  %44 = call noundef i32 @_ZN19OpenColorIO_v2_5dev12_GLOBAL__N_110Lut1dUtils24IMLutTableSizeToBitDepthEib(i32 noundef %43, i1 noundef zeroext false)
  %45 = load ptr, ptr %9, align 8, !tbaa !28
  %46 = getelementptr inbounds nuw %"class.OpenColorIO_v2_5dev::(anonymous namespace)::Lut1dUtils::IMLutStruct", ptr %45, i32 0, i32 3
  store i32 %44, ptr %46, align 4, !tbaa !38
  %47 = call noalias ptr @malloc(i64 noundef 32) #29
  %48 = load ptr, ptr %9, align 8, !tbaa !28
  %49 = getelementptr inbounds nuw %"class.OpenColorIO_v2_5dev::(anonymous namespace)::Lut1dUtils::IMLutStruct", ptr %48, i32 0, i32 4
  store ptr %47, ptr %49, align 8, !tbaa !45
  %50 = load ptr, ptr %9, align 8, !tbaa !28
  %51 = getelementptr inbounds nuw %"class.OpenColorIO_v2_5dev::(anonymous namespace)::Lut1dUtils::IMLutStruct", ptr %50, i32 0, i32 4
  %52 = load ptr, ptr %51, align 8, !tbaa !45
  %53 = icmp eq ptr %52, null
  br i1 %53, label %54, label %59

54:                                               ; preds = %30
  %55 = load ptr, ptr %9, align 8, !tbaa !28
  %56 = icmp eq ptr %55, null
  br i1 %56, label %58, label %57

57:                                               ; preds = %54
  call void @_ZN19OpenColorIO_v2_5dev12_GLOBAL__N_110Lut1dUtils11IMLutStructD2Ev(ptr noundef nonnull align 8 dereferenceable(24) %55) #3
  call void @_ZdlPvm(ptr noundef %55, i64 noundef 24) #26
  br label %58

58:                                               ; preds = %57, %54
  store ptr null, ptr %9, align 8, !tbaa !28
  store i1 false, ptr %4, align 1
  store i32 1, ptr %10, align 4
  br label %110

59:                                               ; preds = %30
  store i32 0, ptr %8, align 4, !tbaa !30
  br label %60

60:                                               ; preds = %71, %59
  %61 = load i32, ptr %8, align 4, !tbaa !30
  %62 = load i32, ptr %6, align 4, !tbaa !30
  %63 = icmp slt i32 %61, %62
  br i1 %63, label %64, label %74

64:                                               ; preds = %60
  %65 = load ptr, ptr %9, align 8, !tbaa !28
  %66 = getelementptr inbounds nuw %"class.OpenColorIO_v2_5dev::(anonymous namespace)::Lut1dUtils::IMLutStruct", ptr %65, i32 0, i32 4
  %67 = load ptr, ptr %66, align 8, !tbaa !45
  %68 = load i32, ptr %8, align 4, !tbaa !30
  %69 = sext i32 %68 to i64
  %70 = getelementptr inbounds ptr, ptr %67, i64 %69
  store ptr null, ptr %70, align 8, !tbaa !46
  br label %71

71:                                               ; preds = %64
  %72 = load i32, ptr %8, align 4, !tbaa !30
  %73 = add nsw i32 %72, 1
  store i32 %73, ptr %8, align 4, !tbaa !30
  br label %60, !llvm.loop !139

74:                                               ; preds = %60
  store i32 0, ptr %8, align 4, !tbaa !30
  br label %75

75:                                               ; preds = %104, %74
  %76 = load i32, ptr %8, align 4, !tbaa !30
  %77 = load i32, ptr %6, align 4, !tbaa !30
  %78 = icmp slt i32 %76, %77
  br i1 %78, label %79, label %107

79:                                               ; preds = %75
  %80 = load i32, ptr %7, align 4, !tbaa !30
  %81 = sext i32 %80 to i64
  %82 = mul i64 %81, 2
  %83 = call noalias ptr @malloc(i64 noundef %82) #29
  %84 = load ptr, ptr %9, align 8, !tbaa !28
  %85 = getelementptr inbounds nuw %"class.OpenColorIO_v2_5dev::(anonymous namespace)::Lut1dUtils::IMLutStruct", ptr %84, i32 0, i32 4
  %86 = load ptr, ptr %85, align 8, !tbaa !45
  %87 = load i32, ptr %8, align 4, !tbaa !30
  %88 = sext i32 %87 to i64
  %89 = getelementptr inbounds ptr, ptr %86, i64 %88
  store ptr %83, ptr %89, align 8, !tbaa !46
  %90 = load ptr, ptr %9, align 8, !tbaa !28
  %91 = getelementptr inbounds nuw %"class.OpenColorIO_v2_5dev::(anonymous namespace)::Lut1dUtils::IMLutStruct", ptr %90, i32 0, i32 4
  %92 = load ptr, ptr %91, align 8, !tbaa !45
  %93 = load i32, ptr %8, align 4, !tbaa !30
  %94 = sext i32 %93 to i64
  %95 = getelementptr inbounds ptr, ptr %92, i64 %94
  %96 = load ptr, ptr %95, align 8, !tbaa !46
  %97 = icmp eq ptr %96, null
  br i1 %97, label %98, label %103

98:                                               ; preds = %79
  %99 = load ptr, ptr %9, align 8, !tbaa !28
  %100 = icmp eq ptr %99, null
  br i1 %100, label %102, label %101

101:                                              ; preds = %98
  call void @_ZN19OpenColorIO_v2_5dev12_GLOBAL__N_110Lut1dUtils11IMLutStructD2Ev(ptr noundef nonnull align 8 dereferenceable(24) %99) #3
  call void @_ZdlPvm(ptr noundef %99, i64 noundef 24) #26
  br label %102

102:                                              ; preds = %101, %98
  store ptr null, ptr %9, align 8, !tbaa !28
  store i1 false, ptr %4, align 1
  store i32 1, ptr %10, align 4
  br label %110

103:                                              ; preds = %79
  br label %104

104:                                              ; preds = %103
  %105 = load i32, ptr %8, align 4, !tbaa !30
  %106 = add nsw i32 %105, 1
  store i32 %106, ptr %8, align 4, !tbaa !30
  br label %75, !llvm.loop !140

107:                                              ; preds = %75
  %108 = load ptr, ptr %9, align 8, !tbaa !28
  %109 = load ptr, ptr %5, align 8, !tbaa !111
  store ptr %108, ptr %109, align 8, !tbaa !28
  store i1 true, ptr %4, align 1
  store i32 1, ptr %10, align 4
  br label %110

110:                                              ; preds = %107, %102, %58
  call void @llvm.lifetime.end.p0(i64 1, ptr %13) #3
  br label %111

111:                                              ; preds = %110, %25, %19
  call void @llvm.lifetime.end.p0(i64 8, ptr %9) #3
  call void @llvm.lifetime.end.p0(i64 4, ptr %8) #3
  %112 = load i1, ptr %4, align 1
  ret i1 %112

113:                                              ; preds = %26
  %114 = load ptr, ptr %11, align 8
  %115 = load i32, ptr %12, align 4
  %116 = insertvalue { ptr, i32 } poison, ptr %114, 0
  %117 = insertvalue { ptr, i32 } %116, i32 %115, 1
  resume { ptr, i32 } %117
}