; Function Attrs: mustprogress uwtable
define internal fastcc noundef zeroext i1 @_ZN19OpenColorIO_v2_5dev12_GLOBAL__N_110Lut1dUtils10IMLutAllocEPPNS1_11IMLutStructEii(ptr noundef nonnull writeonly captures(none) %0, i32 noundef %1, i32 noundef %2) unnamed_addr #3 align 2 personality ptr @__gxx_personality_v0 {
  %4 = or i32 %2, %1
  %or.cond.not = icmp sgt i32 %4, -1
  br i1 %or.cond.not, label %5, label %38

5:                                                ; preds = %3
  %6 = tail call noalias noundef nonnull dereferenceable(24) ptr @_Znwm(i64 noundef 24) #30
  %7 = getelementptr inbounds nuw i8, ptr %6, i64 16
  store i32 %1, ptr %6, align 8, !tbaa !71
  %8 = getelementptr inbounds nuw i8, ptr %6, i64 4
  store i32 %2, ptr %8, align 4, !tbaa !80
  %9 = getelementptr inbounds nuw i8, ptr %6, i64 8
  switch i32 %2, label %_ZN19OpenColorIO_v2_5dev12_GLOBAL__N_110Lut1dUtils24IMLutTableSizeToBitDepthEib.exit [
    i32 256, label %_ZN19OpenColorIO_v2_5dev12_GLOBAL__N_110Lut1dUtils24IMLutTableSizeToBitDepthEib.exit37
    i32 1024, label %_ZN19OpenColorIO_v2_5dev12_GLOBAL__N_110Lut1dUtils24IMLutTableSizeToBitDepthEib.exit.thread60
    i32 4096, label %_ZN19OpenColorIO_v2_5dev12_GLOBAL__N_110Lut1dUtils24IMLutTableSizeToBitDepthEib.exit.thread62
    i32 65536, label %_ZN19OpenColorIO_v2_5dev12_GLOBAL__N_110Lut1dUtils24IMLutTableSizeToBitDepthEib.exit.thread64
  ]

_ZN19OpenColorIO_v2_5dev12_GLOBAL__N_110Lut1dUtils24IMLutTableSizeToBitDepthEib.exit.thread60: ; preds = %5
  br label %_ZN19OpenColorIO_v2_5dev12_GLOBAL__N_110Lut1dUtils24IMLutTableSizeToBitDepthEib.exit37

_ZN19OpenColorIO_v2_5dev12_GLOBAL__N_110Lut1dUtils24IMLutTableSizeToBitDepthEib.exit.thread62: ; preds = %5
  br label %_ZN19OpenColorIO_v2_5dev12_GLOBAL__N_110Lut1dUtils24IMLutTableSizeToBitDepthEib.exit37

_ZN19OpenColorIO_v2_5dev12_GLOBAL__N_110Lut1dUtils24IMLutTableSizeToBitDepthEib.exit.thread64: ; preds = %5
  br label %_ZN19OpenColorIO_v2_5dev12_GLOBAL__N_110Lut1dUtils24IMLutTableSizeToBitDepthEib.exit37

_ZN19OpenColorIO_v2_5dev12_GLOBAL__N_110Lut1dUtils24IMLutTableSizeToBitDepthEib.exit: ; preds = %5
  br label %_ZN19OpenColorIO_v2_5dev12_GLOBAL__N_110Lut1dUtils24IMLutTableSizeToBitDepthEib.exit37

_ZN19OpenColorIO_v2_5dev12_GLOBAL__N_110Lut1dUtils24IMLutTableSizeToBitDepthEib.exit37: ; preds = %5, %_ZN19OpenColorIO_v2_5dev12_GLOBAL__N_110Lut1dUtils24IMLutTableSizeToBitDepthEib.exit.thread60, %_ZN19OpenColorIO_v2_5dev12_GLOBAL__N_110Lut1dUtils24IMLutTableSizeToBitDepthEib.exit.thread62, %_ZN19OpenColorIO_v2_5dev12_GLOBAL__N_110Lut1dUtils24IMLutTableSizeToBitDepthEib.exit.thread64, %_ZN19OpenColorIO_v2_5dev12_GLOBAL__N_110Lut1dUtils24IMLutTableSizeToBitDepthEib.exit
  %.sink = phi i32 [ 10, %_ZN19OpenColorIO_v2_5dev12_GLOBAL__N_110Lut1dUtils24IMLutTableSizeToBitDepthEib.exit.thread60 ], [ 12, %_ZN19OpenColorIO_v2_5dev12_GLOBAL__N_110Lut1dUtils24IMLutTableSizeToBitDepthEib.exit.thread62 ], [ -16, %_ZN19OpenColorIO_v2_5dev12_GLOBAL__N_110Lut1dUtils24IMLutTableSizeToBitDepthEib.exit.thread64 ], [ 0, %_ZN19OpenColorIO_v2_5dev12_GLOBAL__N_110Lut1dUtils24IMLutTableSizeToBitDepthEib.exit ], [ 8, %5 ]
  %.0.i36 = phi i32 [ 10, %_ZN19OpenColorIO_v2_5dev12_GLOBAL__N_110Lut1dUtils24IMLutTableSizeToBitDepthEib.exit.thread60 ], [ 12, %_ZN19OpenColorIO_v2_5dev12_GLOBAL__N_110Lut1dUtils24IMLutTableSizeToBitDepthEib.exit.thread62 ], [ 16, %_ZN19OpenColorIO_v2_5dev12_GLOBAL__N_110Lut1dUtils24IMLutTableSizeToBitDepthEib.exit.thread64 ], [ 0, %_ZN19OpenColorIO_v2_5dev12_GLOBAL__N_110Lut1dUtils24IMLutTableSizeToBitDepthEib.exit ], [ 8, %5 ]
  store i32 %.sink, ptr %9, align 8, !tbaa !79
  %10 = getelementptr inbounds nuw i8, ptr %6, i64 12
  store i32 %.0.i36, ptr %10, align 4, !tbaa !78
  %11 = tail call noalias dereferenceable_or_null(32) ptr @malloc(i64 noundef 32) #37
  store ptr %11, ptr %7, align 8, !tbaa !31
  %12 = icmp eq ptr %11, null
  br i1 %12, label %_ZN19OpenColorIO_v2_5dev12_GLOBAL__N_110Lut1dUtils11IMLutStructD2Ev.exit, label %.preheader67

.preheader67:                                     ; preds = %_ZN19OpenColorIO_v2_5dev12_GLOBAL__N_110Lut1dUtils24IMLutTableSizeToBitDepthEib.exit37
  %13 = icmp sgt i32 %1, 0
  br i1 %13, label %.lr.ph70, label %._crit_edge

_ZN19OpenColorIO_v2_5dev12_GLOBAL__N_110Lut1dUtils11IMLutStructD2Ev.exit: ; preds = %_ZN19OpenColorIO_v2_5dev12_GLOBAL__N_110Lut1dUtils24IMLutTableSizeToBitDepthEib.exit37
  tail call void @_ZdlPvm(ptr noundef nonnull %6, i64 noundef 24) #32
  br label %38

.lr.ph70:                                         ; preds = %.preheader67
  %14 = zext nneg i32 %1 to i64
  %15 = shl nuw nsw i64 %14, 3
  tail call void @llvm.memset.p0.i64(ptr nonnull align 8 %11, i8 0, i64 %15, i1 false), !tbaa !35
  %16 = zext nneg i32 %2 to i64
  %17 = shl nuw nsw i64 %16, 1
  %wide.trip.count = zext nneg i32 %1 to i64
  br label %19

18:                                               ; preds = %19
  %indvars.iv.next = add nuw nsw i64 %indvars.iv, 1
  %exitcond.not = icmp eq i64 %indvars.iv.next, %wide.trip.count
  br i1 %exitcond.not, label %._crit_edge, label %19, !llvm.loop !160

19:                                               ; preds = %.lr.ph70, %18
  %indvars.iv = phi i64 [ 0, %.lr.ph70 ], [ %indvars.iv.next, %18 ]
  %20 = tail call noalias ptr @malloc(i64 noundef %17) #37
  %21 = getelementptr inbounds nuw ptr, ptr %11, i64 %indvars.iv
  store ptr %20, ptr %21, align 8, !tbaa !35
  %22 = icmp eq ptr %20, null
  br i1 %22, label %.lr.ph18.i41, label %18

.lr.ph18.i41:                                     ; preds = %19, %34
  %23 = phi i32 [ %35, %34 ], [ %1, %19 ]
  %indvars.iv22.i42 = phi i64 [ %indvars.iv.next23.i54, %34 ], [ 0, %19 ]
  %24 = load ptr, ptr %7, align 8, !tbaa !31
  %25 = getelementptr inbounds nuw ptr, ptr %24, i64 %indvars.iv22.i42
  %26 = load ptr, ptr %25, align 8, !tbaa !35
  %.not12.i43 = icmp eq ptr %26, null
  br i1 %.not12.i43, label %34, label %.preheader.i44

.preheader.i44:                                   ; preds = %.lr.ph18.i41
  %.not20.i45 = icmp eq i64 %indvars.iv22.i42, 0
  br i1 %.not20.i45, label %._crit_edge.i52, label %.lr.ph.i46

.lr.ph.i46:                                       ; preds = %.preheader.i44, %30
  %indvars.iv.i47 = phi i64 [ %indvars.iv.next.i48, %30 ], [ 0, %.preheader.i44 ]
  %27 = getelementptr inbounds nuw ptr, ptr %24, i64 %indvars.iv.i47
  %28 = load ptr, ptr %27, align 8, !tbaa !35
  %29 = icmp eq ptr %28, %26
  br i1 %29, label %._crit_edge.loopexit.i50, label %30

30:                                               ; preds = %.lr.ph.i46
  %indvars.iv.next.i48 = add nuw nsw i64 %indvars.iv.i47, 1
  %exitcond.not.i49 = icmp eq i64 %indvars.iv.next.i48, %indvars.iv22.i42
  br i1 %exitcond.not.i49, label %._crit_edge.loopexit.i50, label %.lr.ph.i46, !llvm.loop !72

._crit_edge.loopexit.i50:                         ; preds = %30, %.lr.ph.i46
  %.0.lcssa.ph.in.i51 = phi i64 [ %indvars.iv22.i42, %30 ], [ %indvars.iv.i47, %.lr.ph.i46 ]
  %31 = and i64 %.0.lcssa.ph.in.i51, 4294967295
  br label %._crit_edge.i52

._crit_edge.i52:                                  ; preds = %._crit_edge.loopexit.i50, %.preheader.i44
  %.0.lcssa.i53 = phi i64 [ 0, %.preheader.i44 ], [ %31, %._crit_edge.loopexit.i50 ]
  %32 = icmp eq i64 %.0.lcssa.i53, %indvars.iv22.i42
  br i1 %32, label %33, label %34

33:                                               ; preds = %._crit_edge.i52
  tail call void @free(ptr noundef %26) #31
  %.pre.i57 = load i32, ptr %6, align 8, !tbaa !71
  br label %34

34:                                               ; preds = %33, %._crit_edge.i52, %.lr.ph18.i41
  %35 = phi i32 [ %23, %._crit_edge.i52 ], [ %.pre.i57, %33 ], [ %23, %.lr.ph18.i41 ]
  %indvars.iv.next23.i54 = add nuw nsw i64 %indvars.iv22.i42, 1
  %36 = sext i32 %35 to i64
  %37 = icmp slt i64 %indvars.iv.next23.i54, %36
  br i1 %37, label %.lr.ph18.i41, label %_ZN19OpenColorIO_v2_5dev12_GLOBAL__N_110Lut1dUtils11IMLutStructD2Ev.exit58, !llvm.loop !73

_ZN19OpenColorIO_v2_5dev12_GLOBAL__N_110Lut1dUtils11IMLutStructD2Ev.exit58: ; preds = %34
  %.pre25.i56 = load ptr, ptr %7, align 8, !tbaa !31
  tail call void @free(ptr noundef %.pre25.i56) #31
  tail call void @_ZdlPvm(ptr noundef nonnull %6, i64 noundef 24) #32
  br label %38

._crit_edge:                                      ; preds = %18, %.preheader67
  store ptr %6, ptr %0, align 8, !tbaa !25
  br label %38

38:                                               ; preds = %_ZN19OpenColorIO_v2_5dev12_GLOBAL__N_110Lut1dUtils11IMLutStructD2Ev.exit, %_ZN19OpenColorIO_v2_5dev12_GLOBAL__N_110Lut1dUtils11IMLutStructD2Ev.exit58, %._crit_edge, %3
  %.0 = phi i1 [ false, %3 ], [ false, %_ZN19OpenColorIO_v2_5dev12_GLOBAL__N_110Lut1dUtils11IMLutStructD2Ev.exit ], [ false, %_ZN19OpenColorIO_v2_5dev12_GLOBAL__N_110Lut1dUtils11IMLutStructD2Ev.exit58 ], [ true, %._crit_edge ]
  ret i1 %.0
}